; Function Attrs: mustprogress uwtable
define noundef i64 @_ZNK6casadi8Sparsity6colindEx(ptr noundef nonnull align 8 dereferenceable(8) %0, i64 noundef %1) local_unnamed_addr #3 align 2 personality ptr @__gxx_personality_v0 {
  %3 = alloca i64, align 8
  %4 = alloca %"class.std::__cxx11::basic_string", align 8
  %5 = alloca %"class.std::__cxx11::basic_string", align 8
  %6 = alloca %"class.std::__cxx11::basic_string", align 8
  %7 = alloca %"class.std::__cxx11::basic_string", align 8
  %8 = alloca %"class.std::__cxx11::basic_string", align 8
  %9 = alloca %"class.std::__cxx11::basic_string", align 8
  %10 = alloca i64, align 8
  store i64 %1, ptr %3, align 8
  %11 = icmp slt i64 %1, 0
  br i1 %11, label %19, label %12

12:                                               ; preds = %2
  %13 = tail call noundef ptr @_ZNK6casadi12SharedObjectptEv(ptr noundef nonnull align 8 dereferenceable(8) %0)
  %14 = getelementptr inbounds i8, ptr %13, i64 24
  %15 = load ptr, ptr %14, align 8
  %16 = getelementptr inbounds i8, ptr %15, i64 8
  %17 = load i64, ptr %16, align 8
  %18 = icmp slt i64 %17, %1
  br i1 %18, label %19, label %54

19:                                               ; preds = %12, %2
  %20 = tail call ptr @__cxa_allocate_exception(i64 16) #24
  invoke void @_ZN6casadi3strIxEENSt7__cxx1112basic_stringIcSt11char_traitsIcESaIcEEERKT_(ptr dead_on_unwind nonnull writable sret(%"class.std::__cxx11::basic_string") align 8 %8, ptr noundef nonnull align 8 dereferenceable(8) %3)
          to label %21 unwind label %.thread

21:                                               ; preds = %19
  %22 = invoke noundef nonnull align 8 dereferenceable(32) ptr @_ZNSt7__cxx1112basic_stringIcSt11char_traitsIcESaIcEE6insertEmPKc(ptr noundef nonnull align 8 dereferenceable(32) %8, i64 noundef 0, ptr noundef nonnull @.str.21)
          to label %23 unwind label %.thread27

23:                                               ; preds = %21
  call void @_ZNSt7__cxx1112basic_stringIcSt11char_traitsIcESaIcEEC1EOS4_(ptr noundef nonnull align 8 dereferenceable(32) %7, ptr noundef nonnull align 8 dereferenceable(32) %22) #24
  %24 = invoke noundef nonnull align 8 dereferenceable(32) ptr @_ZNSt7__cxx1112basic_stringIcSt11char_traitsIcESaIcEE6appendEPKc(ptr noundef nonnull align 8 dereferenceable(32) %7, ptr noundef nonnull @.str.19)
          to label %25 unwind label %39

25:                                               ; preds = %23
  call void @_ZNSt7__cxx1112basic_stringIcSt11char_traitsIcESaIcEEC1EOS4_(ptr noundef nonnull align 8 dereferenceable(32) %6, ptr noundef nonnull align 8 dereferenceable(32) %24) #24
  %26 = invoke noundef ptr @_ZNK6casadi12SharedObjectptEv(ptr noundef nonnull align 8 dereferenceable(8) %0)
          to label %27 unwind label %41

27:                                               ; preds = %25
  %28 = getelementptr inbounds i8, ptr %26, i64 24
  %29 = load ptr, ptr %28, align 8
  %30 = getelementptr inbounds i8, ptr %29, i64 8
  %31 = load i64, ptr %30, align 8
  store i64 %31, ptr %10, align 8
  invoke void @_ZN6casadi3strIxEENSt7__cxx1112basic_stringIcSt11char_traitsIcESaIcEEERKT_(ptr dead_on_unwind nonnull writable sret(%"class.std::__cxx11::basic_string") align 8 %9, ptr noundef nonnull align 8 dereferenceable(8) %10)
          to label %32 unwind label %41

32:                                               ; preds = %27
  invoke void @_ZStplIcSt11char_traitsIcESaIcEENSt7__cxx1112basic_stringIT_T0_T1_EEOS8_S9_(ptr dead_on_unwind nonnull writable sret(%"class.std::__cxx11::basic_string") align 8 %5, ptr noundef nonnull align 8 dereferenceable(32) %6, ptr noundef nonnull align 8 dereferenceable(32) %9)
          to label %33 unwind label %43

33:                                               ; preds = %32
  %34 = invoke noundef nonnull align 8 dereferenceable(32) ptr @_ZNSt7__cxx1112basic_stringIcSt11char_traitsIcESaIcEE6appendEPKc(ptr noundef nonnull align 8 dereferenceable(32) %5, ptr noundef nonnull @.str.22)
          to label %35 unwind label %45

35:                                               ; preds = %33
  call void @_ZNSt7__cxx1112basic_stringIcSt11char_traitsIcESaIcEEC1EOS4_(ptr noundef nonnull align 8 dereferenceable(32) %4, ptr noundef nonnull align 8 dereferenceable(32) %34) #24
  invoke void @_ZNSt12out_of_rangeC1ERKNSt7__cxx1112basic_stringIcSt11char_traitsIcESaIcEEE(ptr noundef nonnull align 8 dereferenceable(16) %20, ptr noundef nonnull align 8 dereferenceable(32) %4)
          to label %36 unwind label %47

36:                                               ; preds = %35
  invoke void @__cxa_throw(ptr nonnull %20, ptr nonnull @_ZTISt12out_of_range, ptr nonnull @_ZNSt12out_of_rangeD1Ev) #25
          to label %62 unwind label %47

.thread:                                          ; preds = %19
  %37 = landingpad { ptr, i32 }
          cleanup
  br label %53

.thread27:                                        ; preds = %21
  %38 = landingpad { ptr, i32 }
          cleanup
  call void @_ZNSt7__cxx1112basic_stringIcSt11char_traitsIcESaIcEED1Ev(ptr noundef nonnull align 8 dereferenceable(32) %8) #24
  br label %53

39:                                               ; preds = %23
  %40 = landingpad { ptr, i32 }
          cleanup
  br label %52

41:                                               ; preds = %25, %27
  %42 = landingpad { ptr, i32 }
          cleanup
  br label %51

43:                                               ; preds = %32
  %44 = landingpad { ptr, i32 }
          cleanup
  br label %50

45:                                               ; preds = %33
  %46 = landingpad { ptr, i32 }
          cleanup
  br label %49

47:                                               ; preds = %36, %35
  %.0 = phi i1 [ false, %36 ], [ true, %35 ]
  %48 = landingpad { ptr, i32 }
          cleanup
  call void @_ZNSt7__cxx1112basic_stringIcSt11char_traitsIcESaIcEED1Ev(ptr noundef nonnull align 8 dereferenceable(32) %4) #24
  br label %49

49:                                               ; preds = %47, %45
  %.pn = phi { ptr, i32 } [ %48, %47 ], [ %46, %45 ]
  %.1 = phi i1 [ %.0, %47 ], [ true, %45 ]
  call void @_ZNSt7__cxx1112basic_stringIcSt11char_traitsIcESaIcEED1Ev(ptr noundef nonnull align 8 dereferenceable(32) %5) #24
  br label %50

50:                                               ; preds = %49, %43
  %.pn.pn = phi { ptr, i32 } [ %.pn, %49 ], [ %44, %43 ]
  %.2 = phi i1 [ %.1, %49 ], [ true, %43 ]
  call void @_ZNSt7__cxx1112basic_stringIcSt11char_traitsIcESaIcEED1Ev(ptr noundef nonnull align 8 dereferenceable(32) %9) #24
  br label %51

51:                                               ; preds = %50, %41
  %.pn.pn.pn = phi { ptr, i32 } [ %.pn.pn, %50 ], [ %42, %41 ]
  %.3 = phi i1 [ %.2, %50 ], [ true, %41 ]
  call void @_ZNSt7__cxx1112basic_stringIcSt11char_traitsIcESaIcEED1Ev(ptr noundef nonnull align 8 dereferenceable(32) %6) #24
  br label %52

52:                                               ; preds = %39, %51
  %.pn.pn.pn.pn = phi { ptr, i32 } [ %.pn.pn.pn, %51 ], [ %40, %39 ]
  %.4 = phi i1 [ %.3, %51 ], [ true, %39 ]
  call void @_ZNSt7__cxx1112basic_stringIcSt11char_traitsIcESaIcEED1Ev(ptr noundef nonnull align 8 dereferenceable(32) %7) #24
  call void @_ZNSt7__cxx1112basic_stringIcSt11char_traitsIcESaIcEED1Ev(ptr noundef nonnull align 8 dereferenceable(32) %8) #24
  br i1 %.4, label %53, label %61

53:                                               ; preds = %.thread27, %.thread, %52
  %.pn.pn.pn.pn.pn.pn26 = phi { ptr, i32 } [ %37, %.thread ], [ %.pn.pn.pn.pn, %52 ], [ %38, %.thread27 ]
  call void @__cxa_free_exception(ptr %20) #24
  br label %61

54:                                               ; preds = %12
  %55 = tail call noundef ptr @_ZNK6casadi12SharedObjectptEv(ptr noundef nonnull align 8 dereferenceable(8) %0)
  %56 = getelementptr inbounds i8, ptr %55, i64 24
  %57 = load ptr, ptr %56, align 8
  %58 = getelementptr inbounds i8, ptr %57, i64 16
  %59 = getelementptr inbounds i64, ptr %58, i64 %1
  %60 = load i64, ptr %59, align 8
  ret i64 %60

61:                                               ; preds = %52, %53
  %.pn.pn.pn.pn.pn.pn25 = phi { ptr, i32 } [ %.pn.pn.pn.pn, %52 ], [ %.pn.pn.pn.pn.pn.pn26, %53 ]
  resume { ptr, i32 } %.pn.pn.pn.pn.pn.pn25

62:                                               ; preds = %36
  unreachable
}